; Function Attrs: mustprogress uwtable
define noundef zeroext i1 @_ZNK5arrow7compute9InputType7MatchesERKNS_5DatumE(ptr nocapture noundef nonnull readonly align 8 dereferenceable(40) %this, ptr noundef nonnull align 8 dereferenceable(24) %value) local_unnamed_addr #0 align 2 {
entry:
  %_M_index.i.i = getelementptr inbounds i8, ptr %value, i64 16
  %0 = load i8, ptr %_M_index.i.i, align 8
  %.off = add i8 %0, -1
  %switch = icmp ult i8 %.off, 3
  br i1 %switch, label %sw.epilog, label %return

sw.epilog:                                        ; preds = %entry
  %call5 = tail call noundef nonnull align 8 dereferenceable(16) ptr @_ZNK5arrow5Datum4typeEv(ptr noundef nonnull align 8 dereferenceable(24) %value)
  %1 = load ptr, ptr %call5, align 8
  %2 = load i32, ptr %this, align 8
  switch i32 %2, label %return [
    i32 1, label %sw.bb.i
    i32 2, label %sw.bb3.i2
  ]

sw.bb.i:                                          ; preds = %sw.epilog
  %type_.i = getelementptr inbounds i8, ptr %this, i64 8
  %3 = load ptr, ptr %type_.i, align 8
  %call2.i = tail call noundef zeroext i1 @_ZNK5arrow8DataType6EqualsERKS0_b(ptr noundef nonnull align 8 dereferenceable(72) %3, ptr noundef nonnull align 8 dereferenceable(72) %1, i1 noundef zeroext false)
  br label %return

sw.bb3.i2:                                        ; preds = %sw.epilog
  %type_matcher_.i = getelementptr inbounds i8, ptr %this, i64 24
  %4 = load ptr, ptr %type_matcher_.i, align 8
  %vtable.i = load ptr, ptr %4, align 8
  %vfn.i = getelementptr inbounds i8, ptr %vtable.i, i64 16
  %5 = load ptr, ptr %vfn.i, align 8
  %call5.i = tail call noundef zeroext i1 %5(ptr noundef nonnull align 8 dereferenceable(8) %4, ptr noundef nonnull align 8 dereferenceable(72) %1)
  br label %return

return:                                           ; preds = %entry, %sw.bb3.i2, %sw.bb.i, %sw.epilog
  %retval.0 = phi i1 [ %call5.i, %sw.bb3.i2 ], [ %call2.i, %sw.bb.i ], [ true, %sw.epilog ], [ false, %entry ]
  ret i1 %retval.0
}